target datalayout = "e-m:e-p270:32:32-p271:32:32-p272:64:64-i64:64-i128:128-f80:128-n8:16:32:64-S128"
target triple = "x86_64-pc-linux-gnu"

%struct.SDL_Rect = type { i32, i32, i32, i32 }
%struct.SDL_VideoData = type { ptr, ptr, i32, ptr, i64, i32, ptr, i32, i64, i64, %struct.X11_ClipboardData, %struct.X11_ClipboardData, ptr, i64, %struct.X11_SettingsData, i8, %struct.anon.1, [256 x i32], i8, i8, i8, i64, i8, %struct.SDL_Point, i32, ptr, i32, i8, i32, %struct.anon.2, i8, i64, ptr, ptr, i8, i8, i8 }
%struct.X11_ClipboardData = type { ptr, ptr, ptr, i64, i32 }
%struct.X11_SettingsData = type { ptr }
%struct.anon.1 = type { i64, i64, i64, i64, i64, i64, i64, i64, i64, i64, i64, i64, i64, i64, i64, i64, i64, i64, i64, i64, i64, i64, i64, i64, i64, i64, i64, i64, i64, i64, i64, i64, i64, i64, i64, i64, i64, i64, i64, i64, i64, i64, i64, i64, i64, i64, i64, i64, i64, i64, i64, i64, i64 }
%struct.SDL_Point = type { i32, i32 }
%struct.anon.2 = type { ptr, i32, i32, i32, i16, i32, i32 }
%struct.SDL_Window = type { i32, ptr, ptr, i32, i32, i32, i32, i32, i32, i32, i32, float, float, i32, i32, i64, i64, float, i8, i8, i32, i32, %struct.SDL_Rect, %struct.SDL_Rect, %struct.SDL_Rect, i8, i8, i8, %struct.SDL_DisplayMode, %struct.SDL_DisplayMode, %struct.SDL_HDROutputProperties, float, ptr, i8, i8, i8, i8, i8, i8, i8, i8, i8, i32, i32, i32, i32, %struct.SDL_Rect, i32, i8, %struct.SDL_Rect, i32, %struct.SDL_Rect, ptr, ptr, i32, float, i32, i32, ptr, ptr, ptr, ptr, ptr, ptr, ptr, ptr, ptr }
%struct.SDL_DisplayMode = type { i32, i32, i32, i32, float, float, i32, i32, ptr }
%struct.SDL_HDROutputProperties = type { float, float }
%struct.SDL_WindowData = type { ptr, i64, ptr, i64, i8, %struct.XShmSegmentInfo, ptr, ptr, ptr, i8, i32, i32, i32, i32, i8, i8, i8, i64, i32, i64, i8, %struct.SDL_Point, %struct.XConfigureEvent, %struct.XConfigureEvent, ptr, i64, i64, i64, i8, i64, ptr, i8, [4 x i64], %struct.SDL_Rect, i64, %struct._XSyncValue, i8, %struct.SDL_Rect, %struct.SDL_DisplayMode, i32, i32, i8, i8, i8, i8, i8, i8, i8, i8, i32, %struct.XPoint, ptr, ptr, i32, i32, i8 }
%struct.XShmSegmentInfo = type { i64, i32, ptr, i32 }
%struct.XConfigureEvent = type { i32, i64, i32, ptr, i64, i64, i32, i32, i32, i32, i32, i64, i32 }
%struct._XSyncValue = type { i32, i32 }
%struct.XPoint = type { i16, i16 }

@X11_XChangeProperty = external global ptr, align 8
@X11_XDeleteProperty = external global ptr, align 8

; Function Attrs: nounwind uwtable
define hidden zeroext i1 @X11_SetWindowOpacity(ptr noundef %0, ptr noundef %1, float noundef %2) #0 {
  %4 = alloca ptr, align 8
  %5 = alloca ptr, align 8
  %6 = alloca float, align 4
  %7 = alloca ptr, align 8
  %8 = alloca ptr, align 8
  %9 = alloca i64, align 8
  %10 = alloca i32, align 4
  %11 = alloca i64, align 8
  store ptr %0, ptr %4, align 8
  store ptr %1, ptr %5, align 8
  store float %2, ptr %6, align 4
  call void @llvm.lifetime.start.p0(i64 8, ptr %7) #7
  %12 = load ptr, ptr %5, align 8
  %13 = getelementptr inbounds nuw %struct.SDL_Window, ptr %12, i32 0, i32 59
  %14 = load ptr, ptr %13, align 8
  store ptr %14, ptr %7, align 8
  call void @llvm.lifetime.start.p0(i64 8, ptr %8) #7
  %15 = load ptr, ptr %7, align 8
  %16 = getelementptr inbounds nuw %struct.SDL_WindowData, ptr %15, i32 0, i32 24
  %17 = load ptr, ptr %16, align 8
  %18 = getelementptr inbounds nuw %struct.SDL_VideoData, ptr %17, i32 0, i32 0
  %19 = load ptr, ptr %18, align 8
  store ptr %19, ptr %8, align 8
  call void @llvm.lifetime.start.p0(i64 8, ptr %9) #7
  %20 = load ptr, ptr %7, align 8
  %21 = getelementptr inbounds nuw %struct.SDL_WindowData, ptr %20, i32 0, i32 24
  %22 = load ptr, ptr %21, align 8
  %23 = getelementptr inbounds nuw %struct.SDL_VideoData, ptr %22, i32 0, i32 16
  %24 = getelementptr inbounds nuw %struct.anon.1, ptr %23, i32 0, i32 24
  %25 = load i64, ptr %24, align 8
  store i64 %25, ptr %9, align 8
  %26 = load float, ptr %6, align 4
  %27 = fcmp oeq float %26, 1.000000e+00
  br i1 %27, label %28, label %36

28:                                               ; preds = %3
  %29 = load ptr, ptr @X11_XDeleteProperty, align 8
  %30 = load ptr, ptr %8, align 8
  %31 = load ptr, ptr %7, align 8
  %32 = getelementptr inbounds nuw %struct.SDL_WindowData, ptr %31, i32 0, i32 1
  %33 = load i64, ptr %32, align 8
  %34 = load i64, ptr %9, align 8
  %35 = call i32 %29(ptr noundef %30, i64 noundef %33, i64 noundef %34)
  br label %48

36:                                               ; preds = %3
  call void @llvm.lifetime.start.p0(i64 4, ptr %10) #7
  store i32 -1, ptr %10, align 4
  call void @llvm.lifetime.start.p0(i64 8, ptr %11) #7
  %37 = load float, ptr %6, align 4
  %38 = fpext float %37 to double
  %39 = fmul double %38, 0x41EFFFFFFFE00000
  %40 = fptosi double %39 to i64
  store i64 %40, ptr %11, align 8
  %41 = load ptr, ptr @X11_XChangeProperty, align 8
  %42 = load ptr, ptr %8, align 8
  %43 = load ptr, ptr %7, align 8
  %44 = getelementptr inbounds nuw %struct.SDL_WindowData, ptr %43, i32 0, i32 1
  %45 = load i64, ptr %44, align 8
  %46 = load i64, ptr %9, align 8
  %47 = call i32 %41(ptr noundef %42, i64 noundef %45, i64 noundef %46, i64 noundef 6, i32 noundef 32, i32 noundef 0, ptr noundef %11, i32 noundef 1)
  call void @llvm.lifetime.end.p0(i64 8, ptr %11) #7
  call void @llvm.lifetime.end.p0(i64 4, ptr %10) #7
  br label %48

48:                                               ; preds = %36, %28
  call void @llvm.lifetime.end.p0(i64 8, ptr %9) #7
  call void @llvm.lifetime.end.p0(i64 8, ptr %8) #7
  call void @llvm.lifetime.end.p0(i64 8, ptr %7) #7
  ret i1 true
}