; Function Attrs: nounwind uwtable
define hidden noundef zeroext i1 @X11_SetWindowOpacity(ptr noundef readnone captures(none) %0, ptr noundef readonly captures(none) %1, float noundef %2) local_unnamed_addr #0 {
  %4 = alloca i64, align 8
  %5 = getelementptr inbounds nuw i8, ptr %1, i64 392
  %6 = load ptr, ptr %5, align 8
  %7 = getelementptr inbounds nuw i8, ptr %6, i64 336
  %8 = load ptr, ptr %7, align 8
  %9 = load ptr, ptr %8, align 8
  %10 = getelementptr inbounds nuw i8, ptr %8, i64 384
  %11 = load i64, ptr %10, align 8
  %12 = fcmp oeq float %2, 1.000000e+00
  br i1 %12, label %13, label %18

13:                                               ; preds = %3
  %14 = load ptr, ptr @X11_XDeleteProperty, align 8
  %15 = getelementptr inbounds nuw i8, ptr %6, i64 8
  %16 = load i64, ptr %15, align 8
  %17 = tail call i32 %14(ptr noundef %9, i64 noundef %16, i64 noundef %11) #12
  br label %26

18:                                               ; preds = %3
  call void @llvm.lifetime.start.p0(i64 8, ptr nonnull %4) #12
  %19 = fpext float %2 to double
  %20 = fmul double %19, 0x41EFFFFFFFE00000
  %21 = fptosi double %20 to i64
  store i64 %21, ptr %4, align 8
  %22 = load ptr, ptr @X11_XChangeProperty, align 8
  %23 = getelementptr inbounds nuw i8, ptr %6, i64 8
  %24 = load i64, ptr %23, align 8
  %25 = call i32 %22(ptr noundef %9, i64 noundef %24, i64 noundef %11, i64 noundef 6, i32 noundef 32, i32 noundef 0, ptr noundef nonnull %4, i32 noundef 1) #12
  call void @llvm.lifetime.end.p0(i64 8, ptr nonnull %4) #12
  br label %26

26:                                               ; preds = %18, %13
  ret i1 true
}